target datalayout = "e-m:e-p270:32:32-p271:32:32-p272:64:64-i64:64-i128:128-f80:128-n8:16:32:64-S128"
target triple = "x86_64-pc-linux-gnu"

%struct.ToastTupleContext = type { ptr, ptr, ptr, ptr, ptr, i8, ptr }
%struct.ToastAttrInfo = type { ptr, i32, i8, i8 }

; Function Attrs: inlinehint nounwind uwtable
define internal ptr @DatumGetPointer(i64 noundef %0) #2 {
  %2 = alloca i64, align 8
  store i64 %0, ptr %2, align 8
  %3 = load i64, ptr %2, align 8
  %4 = inttoptr i64 %3 to ptr
  ret ptr %4
}

; Function Attrs: nounwind uwtable
define dso_local void @toast_tuple_externalize(ptr noundef %0, i32 noundef %1, i32 noundef %2) #0 {
  %4 = alloca ptr, align 8
  %5 = alloca i32, align 4
  %6 = alloca i32, align 4
  %7 = alloca ptr, align 8
  %8 = alloca i64, align 8
  %9 = alloca ptr, align 8
  store ptr %0, ptr %4, align 8
  store i32 %1, ptr %5, align 4
  store i32 %2, ptr %6, align 4
  call void @llvm.lifetime.start.p0(i64 8, ptr %7) #5
  %10 = load ptr, ptr %4, align 8
  %11 = getelementptr inbounds nuw %struct.ToastTupleContext, ptr %10, i32 0, i32 1
  %12 = load ptr, ptr %11, align 8
  %13 = load i32, ptr %5, align 4
  %14 = sext i32 %13 to i64
  %15 = getelementptr inbounds i64, ptr %12, i64 %14
  store ptr %15, ptr %7, align 8
  call void @llvm.lifetime.start.p0(i64 8, ptr %8) #5
  %16 = load ptr, ptr %7, align 8
  %17 = load i64, ptr %16, align 8
  store i64 %17, ptr %8, align 8
  call void @llvm.lifetime.start.p0(i64 8, ptr %9) #5
  %18 = load ptr, ptr %4, align 8
  %19 = getelementptr inbounds nuw %struct.ToastTupleContext, ptr %18, i32 0, i32 6
  %20 = load ptr, ptr %19, align 8
  %21 = load i32, ptr %5, align 4
  %22 = sext i32 %21 to i64
  %23 = getelementptr inbounds %struct.ToastAttrInfo, ptr %20, i64 %22
  store ptr %23, ptr %9, align 8
  %24 = load ptr, ptr %9, align 8
  %25 = getelementptr inbounds nuw %struct.ToastAttrInfo, ptr %24, i32 0, i32 2
  %26 = load i8, ptr %25, align 4
  %27 = zext i8 %26 to i32
  %28 = or i32 %27, 16
  %29 = trunc i32 %28 to i8
  store i8 %29, ptr %25, align 4
  %30 = load ptr, ptr %4, align 8
  %31 = getelementptr inbounds nuw %struct.ToastTupleContext, ptr %30, i32 0, i32 0
  %32 = load ptr, ptr %31, align 8
  %33 = load i64, ptr %8, align 8
  %34 = load ptr, ptr %9, align 8
  %35 = getelementptr inbounds nuw %struct.ToastAttrInfo, ptr %34, i32 0, i32 0
  %36 = load ptr, ptr %35, align 8
  %37 = load i32, ptr %6, align 4
  %38 = call i64 @toast_save_datum(ptr noundef %32, i64 noundef %33, ptr noundef %36, i32 noundef %37)
  %39 = load ptr, ptr %7, align 8
  store i64 %38, ptr %39, align 8
  %40 = load ptr, ptr %9, align 8
  %41 = getelementptr inbounds nuw %struct.ToastAttrInfo, ptr %40, i32 0, i32 2
  %42 = load i8, ptr %41, align 4
  %43 = zext i8 %42 to i32
  %44 = and i32 %43, 2
  %45 = icmp ne i32 %44, 0
  br i1 %45, label %46, label %49

46:                                               ; preds = %3
  %47 = load i64, ptr %8, align 8
  %48 = call ptr @DatumGetPointer(i64 noundef %47)
  call void @pfree(ptr noundef %48)
  br label %49

49:                                               ; preds = %46, %3
  %50 = load ptr, ptr %9, align 8
  %51 = getelementptr inbounds nuw %struct.ToastAttrInfo, ptr %50, i32 0, i32 2
  %52 = load i8, ptr %51, align 4
  %53 = zext i8 %52 to i32
  %54 = or i32 %53, 2
  %55 = trunc i32 %54 to i8
  store i8 %55, ptr %51, align 4
  %56 = load ptr, ptr %4, align 8
  %57 = getelementptr inbounds nuw %struct.ToastTupleContext, ptr %56, i32 0, i32 5
  %58 = load i8, ptr %57, align 8
  %59 = zext i8 %58 to i32
  %60 = or i32 %59, 10
  %61 = trunc i32 %60 to i8
  store i8 %61, ptr %57, align 8
  call void @llvm.lifetime.end.p0(i64 8, ptr %9) #5
  call void @llvm.lifetime.end.p0(i64 8, ptr %8) #5
  call void @llvm.lifetime.end.p0(i64 8, ptr %7) #5
  ret void
}