; Function Attrs: nounwind uwtable
define dso_local void @toast_tuple_externalize(ptr noundef captures(none) %0, i32 noundef %1, i32 noundef %2) local_unnamed_addr #0 {
  %4 = getelementptr inbounds nuw i8, ptr %0, i64 8
  %5 = load ptr, ptr %4, align 8
  %6 = sext i32 %1 to i64
  %7 = getelementptr inbounds i64, ptr %5, i64 %6
  %8 = load i64, ptr %7, align 8
  %9 = getelementptr inbounds nuw i8, ptr %0, i64 48
  %10 = load ptr, ptr %9, align 8
  %11 = getelementptr inbounds %struct.ToastAttrInfo, ptr %10, i64 %6
  %12 = getelementptr inbounds nuw i8, ptr %11, i64 12
  %13 = load i8, ptr %12, align 4
  %14 = or i8 %13, 16
  store i8 %14, ptr %12, align 4
  %15 = load ptr, ptr %0, align 8
  %16 = load ptr, ptr %11, align 8
  %17 = tail call i64 @toast_save_datum(ptr noundef %15, i64 noundef %8, ptr noundef %16, i32 noundef %2) #5
  store i64 %17, ptr %7, align 8
  %18 = load i8, ptr %12, align 4
  %19 = and i8 %18, 2
  %.not = icmp eq i8 %19, 0
  br i1 %.not, label %22, label %20

20:                                               ; preds = %3
  %21 = inttoptr i64 %8 to ptr
  tail call void @pfree(ptr noundef %21) #5
  %.pre = load i8, ptr %12, align 4
  br label %22

22:                                               ; preds = %20, %3
  %23 = phi i8 [ %.pre, %20 ], [ %18, %3 ]
  %24 = or i8 %23, 2
  store i8 %24, ptr %12, align 4
  %25 = getelementptr inbounds nuw i8, ptr %0, i64 40
  %26 = load i8, ptr %25, align 8
  %27 = or i8 %26, 10
  store i8 %27, ptr %25, align 8
  ret void
}